; ModuleID = 'source-C-CXX/10/444.c'
source_filename = "source-C-CXX/10/444.c"
target datalayout = "e-m:e-p270:32:32-p271:32:32-p272:64:64-i64:64-f80:128-n8:16:32:64-S128"
target triple = "x86_64-pc-linux-gnu"

@__const.main.n = private unnamed_addr constant [12 x i32] [i32 31, i32 28, i32 31, i32 30, i32 31, i32 30, i32 31, i32 31, i32 30, i32 31, i32 30, i32 31], align 16
@.str = private unnamed_addr constant [7 x i8] c"%d%d%d\00", align 1
@.str.1 = private unnamed_addr constant [4 x i8] c"%d\0A\00", align 1

; Function Attrs: nofree nounwind sspstrong uwtable
define dso_local i32 @main(i32 %0, i8** nocapture readnone %1) local_unnamed_addr #0 {
  %3 = alloca i32, align 4
  %4 = alloca i32, align 4
  %5 = alloca i32, align 4
  %6 = alloca [12 x i32], align 16
  %7 = bitcast i32* %3 to i8*
  call void @llvm.lifetime.start.p0i8(i64 4, i8* nonnull %7) #5
  %8 = bitcast i32* %4 to i8*
  call void @llvm.lifetime.start.p0i8(i64 4, i8* nonnull %8) #5
  %9 = bitcast i32* %5 to i8*
  call void @llvm.lifetime.start.p0i8(i64 4, i8* nonnull %9) #5
  %10 = bitcast [12 x i32]* %6 to i8*
  call void @llvm.lifetime.start.p0i8(i64 48, i8* nonnull %10) #5
  call void @llvm.memcpy.p0i8.p0i8.i64(i8* noundef nonnull align 16 dereferenceable(48) %10, i8* noundef nonnull align 16 dereferenceable(48) bitcast ([12 x i32]* @__const.main.n to i8*), i64 48, i1 false)
  %11 = call i32 (i8*, ...) @__isoc99_scanf(i8* getelementptr inbounds ([7 x i8], [7 x i8]* @.str, i64 0, i64 0), i32* nonnull %3, i32* nonnull %4, i32* nonnull %5)
  %12 = load i32, i32* %3, align 4, !tbaa !5
  %13 = srem i32 %12, 400
  %14 = icmp eq i32 %13, 0
  br i1 %14, label %21, label %15

15:                                               ; preds = %2
  %16 = and i32 %12, 3
  %17 = icmp ne i32 %16, 0
  %18 = srem i32 %12, 100
  %19 = icmp eq i32 %18, 0
  %20 = or i1 %17, %19
  br i1 %20, label %23, label %21

21:                                               ; preds = %15, %2
  %22 = getelementptr inbounds [12 x i32], [12 x i32]* %6, i64 0, i64 1
  store i32 29, i32* %22, align 4, !tbaa !5
  br label %23

23:                                               ; preds = %21, %15
  %24 = load i32, i32* %4, align 4, !tbaa !5
  %25 = icmp sgt i32 %24, 1
  br i1 %25, label %26, label %124

26:                                               ; preds = %23
  %27 = zext i32 %24 to i64
  %28 = add nsw i64 %27, -1
  %29 = icmp ult i64 %28, 8
  br i1 %29, label %112, label %30

30:                                               ; preds = %26
  %31 = and i64 %28, -8
  %32 = or i64 %31, 1
  %33 = add nsw i64 %31, -8
  %34 = lshr exact i64 %33, 3
  %35 = add nuw nsw i64 %34, 1
  %36 = and i64 %35, 3
  %37 = icmp ult i64 %33, 24
  br i1 %37, label %83, label %38

38:                                               ; preds = %30
  %39 = and i64 %35, 4611686018427387900
  br label %40

40:                                               ; preds = %40, %38
  %41 = phi i64 [ 0, %38 ], [ %80, %40 ]
  %42 = phi <4 x i32> [ zeroinitializer, %38 ], [ %78, %40 ]
  %43 = phi <4 x i32> [ zeroinitializer, %38 ], [ %79, %40 ]
  %44 = phi i64 [ %39, %38 ], [ %81, %40 ]
  %45 = getelementptr inbounds [12 x i32], [12 x i32]* %6, i64 0, i64 %41
  %46 = bitcast i32* %45 to <4 x i32>*
  %47 = load <4 x i32>, <4 x i32>* %46, align 16, !tbaa !5
  %48 = getelementptr inbounds i32, i32* %45, i64 4
  %49 = bitcast i32* %48 to <4 x i32>*
  %50 = load <4 x i32>, <4 x i32>* %49, align 16, !tbaa !5
  %51 = add <4 x i32> %47, %42
  %52 = add <4 x i32> %50, %43
  %53 = or i64 %41, 8
  %54 = getelementptr inbounds [12 x i32], [12 x i32]* %6, i64 0, i64 %53
  %55 = bitcast i32* %54 to <4 x i32>*
  %56 = load <4 x i32>, <4 x i32>* %55, align 16, !tbaa !5
  %57 = getelementptr inbounds i32, i32* %54, i64 4
  %58 = bitcast i32* %57 to <4 x i32>*
  %59 = load <4 x i32>, <4 x i32>* %58, align 16, !tbaa !5
  %60 = add <4 x i32> %56, %51
  %61 = add <4 x i32> %59, %52
  %62 = or i64 %41, 16
  %63 = getelementptr inbounds [12 x i32], [12 x i32]* %6, i64 0, i64 %62
  %64 = bitcast i32* %63 to <4 x i32>*
  %65 = load <4 x i32>, <4 x i32>* %64, align 16, !tbaa !5
  %66 = getelementptr inbounds i32, i32* %63, i64 4
  %67 = bitcast i32* %66 to <4 x i32>*
  %68 = load <4 x i32>, <4 x i32>* %67, align 16, !tbaa !5
  %69 = add <4 x i32> %65, %60
  %70 = add <4 x i32> %68, %61
  %71 = or i64 %41, 24
  %72 = getelementptr inbounds [12 x i32], [12 x i32]* %6, i64 0, i64 %71
  %73 = bitcast i32* %72 to <4 x i32>*
  %74 = load <4 x i32>, <4 x i32>* %73, align 16, !tbaa !5
  %75 = getelementptr inbounds i32, i32* %72, i64 4
  %76 = bitcast i32* %75 to <4 x i32>*
  %77 = load <4 x i32>, <4 x i32>* %76, align 16, !tbaa !5
  %78 = add <4 x i32> %74, %69
  %79 = add <4 x i32> %77, %70
  %80 = add nuw i64 %41, 32
  %81 = add i64 %44, -4
  %82 = icmp eq i64 %81, 0
  br i1 %82, label %83, label %40, !llvm.loop !9

83:                                               ; preds = %40, %30
  %84 = phi <4 x i32> [ undef, %30 ], [ %78, %40 ]
  %85 = phi <4 x i32> [ undef, %30 ], [ %79, %40 ]
  %86 = phi i64 [ 0, %30 ], [ %80, %40 ]
  %87 = phi <4 x i32> [ zeroinitializer, %30 ], [ %78, %40 ]
  %88 = phi <4 x i32> [ zeroinitializer, %30 ], [ %79, %40 ]
  %89 = icmp eq i64 %36, 0
  br i1 %89, label %106, label %90

90:                                               ; preds = %83, %90
  %91 = phi i64 [ %103, %90 ], [ %86, %83 ]
  %92 = phi <4 x i32> [ %101, %90 ], [ %87, %83 ]
  %93 = phi <4 x i32> [ %102, %90 ], [ %88, %83 ]
  %94 = phi i64 [ %104, %90 ], [ %36, %83 ]
  %95 = getelementptr inbounds [12 x i32], [12 x i32]* %6, i64 0, i64 %91
  %96 = bitcast i32* %95 to <4 x i32>*
  %97 = load <4 x i32>, <4 x i32>* %96, align 16, !tbaa !5
  %98 = getelementptr inbounds i32, i32* %95, i64 4
  %99 = bitcast i32* %98 to <4 x i32>*
  %100 = load <4 x i32>, <4 x i32>* %99, align 16, !tbaa !5
  %101 = add <4 x i32> %97, %92
  %102 = add <4 x i32> %100, %93
  %103 = add nuw i64 %91, 8
  %104 = add i64 %94, -1
  %105 = icmp eq i64 %104, 0
  br i1 %105, label %106, label %90, !llvm.loop !12

106:                                              ; preds = %90, %83
  %107 = phi <4 x i32> [ %84, %83 ], [ %101, %90 ]
  %108 = phi <4 x i32> [ %85, %83 ], [ %102, %90 ]
  %109 = add <4 x i32> %108, %107
  %110 = call i32 @llvm.vector.reduce.add.v4i32(<4 x i32> %109)
  %111 = icmp eq i64 %28, %31
  br i1 %111, label %124, label %112

112:                                              ; preds = %26, %106
  %113 = phi i64 [ 1, %26 ], [ %32, %106 ]
  %114 = phi i32 [ 0, %26 ], [ %110, %106 ]
  br label %115

115:                                              ; preds = %112, %115
  %116 = phi i64 [ %122, %115 ], [ %113, %112 ]
  %117 = phi i32 [ %121, %115 ], [ %114, %112 ]
  %118 = add nsw i64 %116, -1
  %119 = getelementptr inbounds [12 x i32], [12 x i32]* %6, i64 0, i64 %118
  %120 = load i32, i32* %119, align 4, !tbaa !5
  %121 = add nsw i32 %120, %117
  %122 = add nuw nsw i64 %116, 1
  %123 = icmp eq i64 %122, %27
  br i1 %123, label %124, label %115, !llvm.loop !14

124:                                              ; preds = %115, %106, %23
  %125 = phi i32 [ 0, %23 ], [ %110, %106 ], [ %121, %115 ]
  %126 = load i32, i32* %5, align 4, !tbaa !5
  %127 = add nsw i32 %126, %125
  %128 = call i32 (i8*, ...) @printf(i8* nonnull dereferenceable(1) getelementptr inbounds ([4 x i8], [4 x i8]* @.str.1, i64 0, i64 0), i32 %127)
  call void @llvm.lifetime.end.p0i8(i64 48, i8* nonnull %10) #5
  call void @llvm.lifetime.end.p0i8(i64 4, i8* nonnull %9) #5
  call void @llvm.lifetime.end.p0i8(i64 4, i8* nonnull %8) #5
  call void @llvm.lifetime.end.p0i8(i64 4, i8* nonnull %7) #5
  ret i32 0
}

; Function Attrs: argmemonly mustprogress nofree nosync nounwind willreturn
declare void @llvm.lifetime.start.p0i8(i64 immarg, i8* nocapture) #1

; Function Attrs: argmemonly mustprogress nofree nounwind willreturn
declare void @llvm.memcpy.p0i8.p0i8.i64(i8* noalias nocapture writeonly, i8* noalias nocapture readonly, i64, i1 immarg) #2

; Function Attrs: nofree nounwind
declare noundef i32 @__isoc99_scanf(i8* nocapture noundef readonly, ...) local_unnamed_addr #3

; Function Attrs: nofree nounwind
declare noundef i32 @printf(i8* nocapture noundef readonly, ...) local_unnamed_addr #3

; Function Attrs: argmemonly mustprogress nofree nosync nounwind willreturn
declare void @llvm.lifetime.end.p0i8(i64 immarg, i8* nocapture) #1

; Function Attrs: nofree nosync nounwind readnone willreturn
declare i32 @llvm.vector.reduce.add.v4i32(<4 x i32>) #4


!llvm.module.flags = !{!0, !1, !2, !3}
!llvm.ident = !{!4}

!0 = !{i32 1, !"wchar_size", i32 4}
!1 = !{i32 7, !"PIC Level", i32 2}
!2 = !{i32 7, !"PIE Level", i32 2}
!3 = !{i32 7, !"uwtable", i32 1}
!4 = !{!"clang version 13.0.0"}
!5 = !{!6, !6, i64 0}
!6 = !{!"int", !7, i64 0}
!7 = !{!"omnipotent char", !8, i64 0}
!8 = !{!"Simple C/C++ TBAA"}
!9 = distinct !{!9, !10, !11}
!10 = !{!"llvm.loop.mustprogress"}
!11 = !{!"llvm.loop.isvectorized", i32 1}
!12 = distinct !{!12, !13}
!13 = !{!"llvm.loop.unroll.disable"}
!14 = distinct !{!14, !10, !15, !11}
!15 = !{!"llvm.loop.unroll.runtime.disable"}
